; Function Attrs: mustprogress uwtable
define hidden void @_ZN4lean24initialize_elim_dead_letEv() local_unnamed_addr #0 personality ptr @__gxx_personality_v0 {
  %1 = alloca %"class.lean::name", align 8
  %2 = tail call noalias noundef nonnull dereferenceable(8) ptr @_Znwm(i64 noundef 8) #17
  call void @llvm.lifetime.start.p0(i64 8, ptr nonnull %1) #14
  store ptr inttoptr (i64 1 to ptr), ptr %1, align 8, !tbaa !19
  invoke void @_ZN4lean4nameC2ERKS0_PKc(ptr noundef nonnull align 8 dereferenceable(8) %2, ptr noundef nonnull align 8 dereferenceable(8) %1, ptr noundef nonnull @.str)
          to label %3 unwind label %.body

3:                                                ; preds = %0
  %4 = load ptr, ptr %1, align 8, !tbaa !19
  %5 = ptrtoint ptr %4 to i64
  %6 = and i64 %5, 1
  %.not.i.i.i = icmp eq i64 %6, 0
  br i1 %.not.i.i.i, label %7, label %18

7:                                                ; preds = %3
  %8 = load i32, ptr %4, align 4, !tbaa !21
  %9 = icmp sgt i32 %8, 1
  br i1 %9, label %10, label %12, !prof !24

10:                                               ; preds = %7
  %11 = add nsw i32 %8, -1
  store i32 %11, ptr %4, align 4, !tbaa !21
  br label %18

12:                                               ; preds = %7
  %.not.i.i.i.i = icmp eq i32 %8, 0
  br i1 %.not.i.i.i.i, label %18, label %13

13:                                               ; preds = %12
  invoke void @lean_dec_ref_cold(ptr noundef nonnull %4)
          to label %18 unwind label %14

14:                                               ; preds = %13
  %15 = landingpad { ptr, i32 }
          catch ptr null
  %16 = extractvalue { ptr, i32 } %15, 0
  call void @__clang_call_terminate(ptr %16) #15
  unreachable

.body:                                            ; preds = %0
  %17 = landingpad { ptr, i32 }
          cleanup
  call void @_ZN4lean10object_refD2Ev(ptr noundef nonnull align 8 dereferenceable(8) %1) #14
  call void @llvm.lifetime.end.p0(i64 8, ptr nonnull %1) #14
  call void @_ZdlPvm(ptr noundef nonnull %2, i64 noundef 8) #16
  resume { ptr, i32 } %17

18:                                               ; preds = %13, %12, %10, %3
  call void @llvm.lifetime.end.p0(i64 8, ptr nonnull %1) #14
  store ptr %2, ptr @_ZN4leanL21g_elim_dead_let_freshE, align 8, !tbaa !17
  %19 = load ptr, ptr %2, align 8, !tbaa !19
  call void @lean_mark_persistent(ptr noundef %19)
  %20 = load ptr, ptr @_ZN4leanL21g_elim_dead_let_freshE, align 8, !tbaa !17
  call void @_ZN4lean30register_name_generator_prefixERKNS_4nameE(ptr noundef nonnull align 8 dereferenceable(8) %20)
  ret void
}